Open Watcom Linker Version 2.0 beta Jan 14 2021 00:23:19 (32-bit)
Copyright (c) 2002-2021 The Open Watcom Contributors. All Rights Reserved.
Portions Copyright (c) 1985-2002 Sybase, Inc. All Rights Reserved.
Created on:       21/01/16 14:42:51
Warning! W1027: file game.obj(C:\git\dos_tetris\src\game.c): redefinition of _scores ignored
Warning! W1027: file input.obj(C:\git\dos_tetris\src\input.c): redefinition of _key ignored
Warning! W1027: file test.obj(C:\git\dos_tetris\src\test.c): redefinition of _clock_ticks ignored
Warning! W1027: file test.obj(C:\git\dos_tetris\src\test.c): redefinition of _speaker_ticks ignored
Warning! W1027: file test.obj(C:\git\dos_tetris\src\test.c): redefinition of _target_speaker_ticks ignored
Warning! W1027: file test.obj(C:\git\dos_tetris\src\test.c): redefinition of _key ignored
Warning! W1027: file timer.obj(C:\git\dos_tetris\src\timer.c): redefinition of _clock_ticks ignored
Warning! W1027: file timer.obj(C:\git\dos_tetris\src\timer.c): redefinition of _speaker_ticks ignored
Warning! W1027: file timer.obj(C:\git\dos_tetris\src\timer.c): redefinition of _target_speaker_ticks ignored
Executable Image: tetris.exe
creating a DOS executable


                        +------------+
                        |   Groups   |
                        +------------+

Group                           Address              Size
=====                           =======              ====

DGROUP                          03cb:0000            000010c0



                        +--------------+
                        |   Segments   |
                        +--------------+

Segment                Class          Group          Address         Size
=======                =====          =====          =======         ====

disk_TEXT              CODE           AUTO           0000:0000       0000049c
game_TEXT              CODE           AUTO           0000:049c       00001f4c
input_TEXT             CODE           AUTO           0000:23e8       000000c8
screen_TEXT            CODE           AUTO           0000:24b0       00000826
sound_TEXT             CODE           AUTO           0000:2cd6       000000fe
test_TEXT              CODE           AUTO           0000:2dd4       00000129
timer_TEXT             CODE           AUTO           0000:2efd       00000151
_TEXT                  CODE           AUTO           0000:304e       00000c5e
FAR_DATA               FAR_DATA       AUTO           03ca:000c       00000000
_NULL                  BEGDATA        DGROUP         03cb:0000       00000020
_AFTERNULL             BEGDATA        DGROUP         03cd:0000       00000002
CONST                  DATA           DGROUP         03cd:0002       0000010b
CONST2                 DATA           DGROUP         03dd:000e       00000000
_DATA                  DATA           DGROUP         03dd:000e       000006ca
XIB                    DATA           DGROUP         044a:0008       00000000
XI                     DATA           DGROUP         044a:0008       00000006
XIE                    DATA           DGROUP         044a:000e       00000000
YIB                    DATA           DGROUP         044a:000e       00000000
YI                     DATA           DGROUP         044a:000e       00000000
YIE                    DATA           DGROUP         044a:000e       00000000
STRINGS                DATA           DGROUP         044a:000e       00000000
DATA                   DATA           DGROUP         044a:000e       00000000
_BSS                   BSS            DGROUP         044a:000e       000000c2
STACK                  STACK          DGROUP         0457:0000       00000800


                        +----------------+
                        |   Memory Map   |
                        +----------------+

* = unreferenced symbol
+ = symbol only referenced locally

Address        Symbol
=======        ======

Module: disk.obj(C:\git\dos_tetris\src\disk.c)
0000:0000+     load_scores_
0000:02bb+     save_scores_
0000:0418+     get_score_sheet_handle_
03cb:07fe      _scores
Module: game.obj(C:\git\dos_tetris\src\game.c)
0000:049c+     init_pause_screen_
0000:0596+     update_stats_
0000:0639+     title_screen_
0000:0a12+     show_high_scores_
0000:0d98+     init_stats_
0000:0e0c+     gen_piece_
0000:0e6e+     gen_type_
0000:0f16+     get_piece_grid_
0000:1a4e+     get_intersection_
0000:1b12+     get_width_
0000:1bf3+     get_height_
0000:1cbf+     draw_piece_
0000:1e17+     draw_next_piece_
0000:1edc+     draw_intersection_
0000:2155+     rotate_piece_
0000:22b8+     move_piece_left_
0000:231e+     move_piece_right_
0000:2383+     move_piece_down_
03cb:012e+     _stats
03cb:0135+     _title
03cb:089e      _clock_ticks
03cb:08a0      _key
Module: input.obj(C:\git\dos_tetris\src\input.c)
0000:23e8+     keyboard_isr_
0000:2438      init_kbd_
0000:247e      return_kbd_
03cb:08a2+     _prev_int_09
Module: screen.obj(C:\git\dos_tetris\src\screen.c)
0000:24b0      draw_frame_
0000:2678+     get_box_color_
0000:26eb      draw_box_
0000:2749      check_box_
0000:279d+     del_row_
0000:27ea      del_box_
0000:2840      write_char_
0000:28a1      change_page_
0000:28e9      scroll_page_up_
0000:2947+     scroll_game_down_
0000:29a6      write_string_
0000:2a41      write_num_
0000:2b56+     read_char_
0000:2ba5+     set_video_mode_
0000:2be8      move_cursor_
0000:2c3e+     return_screen_
0000:2c8f      init_screen_
Module: sound.obj(C:\git\dos_tetris\src\sound.c)
0000:2cd6+     speaker_on_
0000:2d07+     speaker_off_
0000:2d39      init_speaker_
0000:2d61      beep_
03cb:079c      _speaker_ticks
03cb:079e      _target_speaker_ticks
Module: test.obj(C:\git\dos_tetris\src\test.c)
0000:2dd4      main_
Module: timer.obj(C:\git\dos_tetris\src\timer.c)
0000:2efd+     timer_isr_
0000:2f92      init_timer_
0000:2fd8      return_timer_
0000:300a      clock_ticks_since_midnight_
03cb:08ae+     _prev_int_1C
Module: C:\WATCOM\lib286\dos\clibl.lib(stk086.asm)
0000:3053      __STK
0000:3073*     __STKOVERFLOW_
Module: C:\WATCOM\lib286\dos\clibl.lib(io086.asm)
0000:3090      _dos_read_
0000:30b3      _dos_write_
Module: C:\WATCOM\lib286\dos\clibl.lib(filedos.c)
0000:30c3      _dos_close_
0000:30d1*     _dos_commit_
Module: C:\WATCOM\lib286\dos\clibl.lib(i4m.asm)
0000:30e0*     __I4M
0000:30e0      __U4M
Module: C:\WATCOM\lib286\dos\clibl.lib(creatdos.c)
0000:30f8      _dos_creat_
0000:311c      _dos_creatnew_
Module: C:\WATCOM\lib286\dos\clibl.lib(i4d.asm)
0000:313e      __I4D
0000:318d      __U4D
Module: C:\WATCOM\lib286\dos\clibl.lib(opendos.c)
0000:3211      _dos_open_
Module: C:\WATCOM\lib286\dos\clibl.lib(cmodel.asm)
0000:3238      _big_code_
0000:3238*     CodeModelMismatch
Module: C:\WATCOM\lib286\dos\clibl.lib(rand.c)
0000:3238      rand_
0000:327a      srand_
Module: C:\WATCOM\lib286\dos\clibl.lib(bioskeyb.c)
0000:329d      _bios_keybrd_
Module: C:\WATCOM\lib286\dos\clibl.lib(d_getvec.c)
0000:32a2      _dos_getvect_
Module: C:\WATCOM\lib286\dos\clibl.lib(d_setvec.c)
0000:32ad      _dos_setvect_
Module: C:\WATCOM\lib286\dos\clibl.lib(intx086.c)
0000:32ba+     int86x_
0000:335b      int86_
Module: C:\WATCOM\lib286\dos\clibl.lib(strlen.c)
0000:3388      strlen_
Module: C:\WATCOM\lib286\dos\clibl.lib(inp.c)
0000:339d      inp_
Module: C:\WATCOM\lib286\dos\clibl.lib(outp.c)
0000:33a5      outp_
Module: C:\WATCOM\lib286\dos\clibl.lib(cstart)
03cb:0000*     __nullarea
03cb:07a8*     __ovlflag
03cb:07a9*     __intno
03cb:07aa*     __ovlvec
0000:33b0      _cstart_
0000:3561      __exit_
0000:357e      __do_exit_with_msg_
0000:365d      __GETDS
Module: C:\WATCOM\lib286\dos\clibl.lib(chainint)
0000:3668      _chain_intr_
Module: C:\WATCOM\lib286\dos\clibl.lib(xmsg.c)
0000:3688*     __exit_with_msg_
0000:368d      __fatal_runtime_error_
Module: C:\WATCOM\lib286\dos\clibl.lib(crwdata)
03cb:07ae      __curbrk
03cb:07b6      __STACKLOW
03cb:07b8      __STACKTOP
03cb:07ba      __cbyte
03cb:07bc      __child
03cb:07be      __no87
03cb:07cb      ___FPE_handler
03cb:07b0      __psp
03cb:07bf      __get_ovl_stack
03cb:07c3      __restore_ovl_stack
03cb:07c7      __close_ovl_file
03cb:07cf      __LpCmdLine
03cb:07d3      __LpPgmName
03cb:07b2      __osmajor
03cb:07b3      __osminor
03cb:07b4      __osmode
03cb:07b5      __HShift
Module: C:\WATCOM\lib286\dos\clibl.lib(error086.asm)
0000:36a8      __doserror_
0000:36b6*     __doserror1_
Module: C:\WATCOM\lib286\dos\clibl.lib(func086.asm)
0000:36c2*     __ibm_bios_equiplist_
0000:36c5      __ibm_bios_keybrd_
0000:36da*     __ibm_bios_memsize_
0000:36dd*     __ibm_bios_printer_
0000:36e8*     __ibm_bios_serialcom_
Module: C:\WATCOM\lib286\dos\clibl.lib(dointr)
0000:36f0      _DoINTR_
Module: C:\WATCOM\lib286\dos\clibl.lib(segread.c)
0000:3a65      segread_
Module: C:\WATCOM\lib286\dos\clibl.lib(cmain086.c)
0000:3a85      __CMain
Module: C:\WATCOM\lib286\dos\clibl.lib(initrtns.c)
0000:3ad7      __InitRtns
0000:3ad7*     __FInitRtns
0000:3b2e      __FiniRtns
0000:3b2e*     __FFiniRtns
Module: C:\WATCOM\lib286\dos\clibl.lib(uselfn.c)
03cb:07d8      ___uselfn
Module: C:\WATCOM\lib286\dos\clibl.lib(dosseg)
0000:3b8e      __DOSseg__
Module: C:\WATCOM\lib286\dos\clibl.lib(enterdb.c)
0000:3b8f      __EnterWVIDEO_
03cb:07da+     ___WD_Present
Module: C:\WATCOM\lib286\dos\clibl.lib(dosret.c)
0000:3bb3*     __dosretax
0000:3bb8*     __dosret0
0000:3bbf      __set_errno_dos_
0000:3c4b*     __set_errno_dos_reterr_
Module: C:\WATCOM\lib286\dos\clibl.lib(___argc.c)
03cb:08b6      ____Argv
03cb:08ba      ____Argc
Module: C:\WATCOM\lib286\dos\clibl.lib(exit.c)
0000:3c56+     __null_int23_exit_
0000:3c57      exit_
0000:3c86*     _exit_
03cb:07f0+     ___int23_exit
03cb:07f4+     ___FPE_handler_exit
Module: C:\WATCOM\lib286\dos\clibl.lib(sgdef086)
03cb:07f8      __Start_XI
03cb:07fe      __End_XI
03cb:07fe      __Start_YI
03cb:07fe      __End_YI
Module: C:\WATCOM\lib286\dos\clibl.lib(doserrno.c)
0000:3c9e      __get_doserrno_ptr_
03cb:08bc+     __doserrno
Module: C:\WATCOM\lib286\dos\clibl.lib(errno.c)
0000:3ca5      __get_errno_ptr_
03cb:08be+     _errno


                        +--------------------+
                        |   Libraries Used   |
                        +--------------------+

C:\WATCOM\lib286\dos\clibl.lib


                        +-----------------------+
                        |   Linker Statistics   |
                        +-----------------------+

Stack size:  0800 (2048.)
Memory size:  4d70 (19824.)
Entry point address: 0000:33b0
Link time: 00:00.63
